Certificate:
    Data:
        Version: 3 (0x2)
        Serial Number: 1058786849 (0x3f1bce21)
    Signature Algorithm: sha1WithRSAEncryption
        Issuer: C=HR, O=FINA, OU=RDC
        Validity
            Not Before: Jul 21 10:57:43 2003 GMT
            Not After : Jul 21 11:27:43 2023 GMT
        Subject: C=HR, O=FINA, OU=RDC
        Subject Public Key Info:
            Public Key Algorithm: rsaEncryption
                Public-Key: (2048 bit)
                Modulus:
                    00:e8:67:a3:e8:18:8e:5b:0f:0d:99:3a:80:83:ad:
                    2b:86:24:44:a5:d3:12:26:d9:d4:bd:da:04:ea:a2:
                    15:27:e7:a3:e6:8b:d7:45:0a:9b:d4:7c:ca:c3:c9:
                    33:de:2e:69:fc:25:17:fb:60:20:6f:4d:3f:59:ea:
                    1a:0c:05:aa:7e:ae:1f:f0:c2:3c:1d:9d:ee:65:34:
                    66:08:6a:e0:3c:b0:09:61:1d:0c:07:d1:a4:98:37:
                    26:3c:5d:3c:af:e9:88:00:ef:31:fd:e8:48:23:ca:
                    cf:2d:03:6b:d5:ca:09:ae:bd:98:1e:af:a6:58:a4:
                    87:2c:73:05:e6:2d:cd:f8:42:ed:8f:c1:aa:e8:f9:
                    ab:a1:33:2b:99:2b:62:fb:c7:ba:47:61:7d:50:e2:
                    cf:f3:c7:a7:c9:f7:18:82:74:d7:34:6f:9b:b6:1b:
                    1c:c4:51:d2:b5:bc:ee:54:fc:ff:05:de:ef:a1:d2:
                    ce:f5:7b:e5:f2:3d:92:c0:56:09:d7:62:f9:3d:c3:
                    e4:c4:44:fa:2a:e4:2f:53:88:cd:f2:03:9d:ad:3d:
                    09:8c:9e:05:11:3b:2c:30:a8:e5:93:4f:ba:ec:47:
                    b2:17:38:fc:56:80:3a:13:29:2b:3f:eb:11:d7:d7:
                    16:2b:41:4b:e6:c3:0f:c2:c8:0e:16:4f:e4:d4:16:
                    a0:1d
                Exponent: 65537 (0x10001)
        X509v3 extensions:
            X509v3 Basic Constraints: critical
                CA:TRUE
            X509v3 Key Usage: critical
                Certificate Sign, CRL Sign
            Netscape Cert Type:
                SSL CA, S/MIME CA, Object Signing CA
            X509v3 CRL Distribution Points:

                Full Name:
                  DirName: C = HR, O = FINA, OU = RDC, CN = CRL1

                Full Name:
                  URI:ldap://rdc-ldap.fina.hr/ou=RDC,o=FINA,c=HR?certificateRevocationList%3Bbinary

                Full Name:
                  URI:http://rdc.fina.hr/crls/rdc.crl

            X509v3 Private Key Usage Period:
                Not Before: Jul 21 10:57:43 2003 GMT, Not After: Jul 21 11:27:43 2023 GMT
            X509v3 Authority Key Identifier:
                keyid:47:45:00:6E:F0:57:A6:C0

            X509v3 Subject Key Identifier:
                47:45:00:6E:F0:57:A6:C0
            1.2.840.113533.7.65.0:
                0...V6.0:4.0....
    Signature Algorithm: sha1WithRSAEncryption
         56:3e:6b:a8:60:d6:01:3e:5d:f3:80:59:84:2f:34:96:3a:0e:
         f0:a1:f8:a5:7f:cc:b4:1e:6e:80:9d:6f:b0:96:fe:88:86:58:
         04:c6:36:10:e4:47:31:f2:dd:aa:43:12:8b:b4:e5:46:27:2f:
         2b:80:31:66:cb:4c:b4:7a:af:e8:98:d3:92:67:96:88:b0:6d:
         d9:ae:a8:1c:17:fc:10:0d:40:92:33:e0:21:59:57:18:04:6e:
         d3:fb:af:7e:43:41:9b:80:d4:bd:11:a9:88:92:ac:c4:6d:34:
         8e:40:0a:2a:49:53:c7:64:b6:88:07:5c:69:c8:fc:f4:81:2f:
         f1:91:16:8b:e6:a5:ad:d9:d6:e9:c7:ae:c1:dd:8a:d5:cb:66:
         ce:8b:ed:5d:99:75:04:a7:24:1d:d2:78:e5:31:a4:de:6a:fd:
         6c:95:2f:70:8c:4f:a1:6b:cf:76:ab:8d:ec:50:33:a1:5d:c6:
         14:3b:6d:58:61:74:40:c8:bb:cf:29:82:74:95:be:f1:36:e6:
         1f:8c:62:ae:23:31:66:7e:0d:89:61:14:23:dd:b1:5f:58:d3:
         b3:ee:eb:7f:62:40:d9:9e:77:25:11:83:e2:b7:d3:69:6f:b0:
         4d:e6:27:21:0f:cb:27:7d:ab:26:83:5d:fc:1b:fb:15:73:b2:
         2c:3e:9a:ac
-----BEGIN CERTIFICATE-----
MIIETTCCAzWgAwIBAgIEPxvOITANBgkqhkiG9w0BAQUFADAqMQswCQYDVQQGEwJI
UjENMAsGA1UEChMERklOQTEMMAoGA1UECxMDUkRDMB4XDTAzMDcyMTEwNTc0M1oX
DTIzMDcyMTExMjc0M1owKjELMAkGA1UEBhMCSFIxDTALBgNVBAoTBEZJTkExDDAK
BgNVBAsTA1JEQzCCASIwDQYJKoZIhvcNAQEBBQADggEPADCCAQoCggEBAOhno+gY
jlsPDZk6gIOtK4YkRKXTEibZ1L3aBOqiFSfno+aL10UKm9R8ysPJM94uafwlF/tg
IG9NP1nqGgwFqn6uH/DCPB2d7mU0Zghq4DywCWEdDAfRpJg3JjxdPK/piADvMf3o
SCPKzy0Da9XKCa69mB6vplikhyxzBeYtzfhC7Y/Bquj5q6EzK5krYvvHukdhfVDi
z/PHp8n3GIJ01zRvm7YbHMRR0rW87lT8/wXe76HSzvV75fI9ksBWCddi+T3D5MRE
+irkL1OIzfIDna09CYyeBRE7LDCo5ZNPuuxHshc4/FaAOhMpKz/rEdfXFitBS+bD
D8LIDhZP5NQWoB0CAwEAAaOCAXkwggF1MA8GA1UdEwEB/wQFMAMBAf8wDgYDVR0P
AQH/BAQDAgEGMBEGCWCGSAGG+EIBAQQEAwIABzCBygYDVR0fBIHCMIG/MEGgP6A9
pDswOTELMAkGA1UEBhMCSFIxDTALBgNVBAoTBEZJTkExDDAKBgNVBAsTA1JEQzEN
MAsGA1UEAxMEQ1JMMTBToFGgT4ZNbGRhcDovL3JkYy1sZGFwLmZpbmEuaHIvb3U9
UkRDLG89RklOQSxjPUhSP2NlcnRpZmljYXRlUmV2b2NhdGlvbkxpc3QlM0JiaW5h
cnkwJaAjoCGGH2h0dHA6Ly9yZGMuZmluYS5oci9jcmxzL3JkYy5jcmwwKwYDVR0Q
BCQwIoAPMjAwMzA3MjExMDU3NDNagQ8yMDIzMDcyMTExMjc0M1owEwYDVR0jBAww
CoAIR0UAbvBXpsAwEQYDVR0OBAoECEdFAG7wV6bAMB0GCSqGSIb2fQdBAAQQMA4b
CFY2LjA6NC4wAwIEkDANBgkqhkiG9w0BAQUFAAOCAQEAVj5rqGDWAT5d84BZhC80
ljoO8KH4pX/MtB5ugJ1vsJb+iIZYBMY2EORHMfLdqkMSi7TlRicvK4AxZstMtHqv
6JjTkmeWiLBt2a6oHBf8EA1AkjPgIVlXGARu0/uvfkNBm4DUvRGpiJKsxG00jkAK
KklTx2S2iAdcacj89IEv8ZEWi+alrdnW6ceuwd2K1ctmzovtXZl1BKckHdJ45TGk
3mr9bJUvcIxPoWvPdquN7FAzoV3GFDttWGF0QMi7zymCdJW+8TbmH4xiriMxZn4N
iWEUI92xX1jTs+7rf2JA2Z53JRGD4rfTaW+wTeYnIQ/LJ32rJoNd/Bv7FXOyLD6a
rA==
-----END CERTIFICATE-----
Certificate:
    Data:
        Version: 3 (0x2)
        Serial Number:
            98:33:c9:a8:00:00:00:00:56:54:bc:6e
    Signature Algorithm: sha256WithRSAEncryption
        Issuer: C=HR, O=Financijska agencija, CN=Fina Root CA
        Validity
            Not Before: Nov 24 19:07:30 2015 GMT
            Not After : Nov 24 19:37:30 2035 GMT
        Subject: C=HR, O=Financijska agencija, CN=Fina Root CA
        Subject Public Key Info:
            Public Key Algorithm: rsaEncryption
                Public-Key: (4096 bit)
                Modulus:
                    00:b4:73:d2:d6:65:d3:02:ef:58:3a:f4:82:82:d3:
                    a7:e0:8a:60:b2:3a:f5:b1:65:38:a7:24:0e:21:6b:
                    7d:e9:a0:9d:33:a2:74:cd:ae:91:ba:94:b5:cc:c6:
                    80:b5:71:df:48:71:ca:75:4b:a7:bf:ff:26:eb:84:
                    fe:b9:72:16:c8:c2:7e:86:d4:bf:af:ee:63:35:b9:
                    c0:e4:da:05:4f:b8:48:9e:22:28:ff:55:05:23:6b:
                    81:4e:b3:17:11:2c:2a:25:1f:e4:e1:df:61:c8:3c:
                    f2:56:69:d0:55:7d:96:10:b2:a8:7b:56:90:5b:a6:
                    5e:53:8b:41:e3:c7:87:c7:31:bd:34:39:ec:19:21:
                    d9:80:c4:e8:0d:db:da:03:0c:00:f4:aa:b5:82:06:
                    25:0c:c5:d9:1a:62:9d:fd:0a:49:05:fc:1c:be:93:
                    46:fc:ce:89:91:ff:cd:cc:5f:48:5f:dc:38:d0:75:
                    6f:d2:2d:ab:cc:22:12:78:88:12:1f:e0:d5:4e:77:
                    bc:2c:89:4d:76:7a:88:9b:5d:07:da:b3:67:98:d1:
                    39:ce:7a:46:ab:cf:f6:7d:57:25:13:fa:84:c4:03:
                    70:af:0c:76:0c:d2:40:24:7c:59:df:77:37:59:50:
                    b1:25:46:4e:42:1d:08:22:09:72:55:c4:42:ea:6f:
                    6f:65:59:d4:4e:e0:3d:a3:ab:70:7c:e6:09:30:55:
                    76:62:89:f3:6f:d2:0a:a6:b3:6e:19:3d:96:86:7a:
                    66:94:cd:f2:cc:7a:f0:07:08:b3:69:ae:1b:ff:1c:
                    71:18:a2:44:f9:db:d6:0d:84:10:81:74:49:61:62:
                    d7:10:f0:01:a6:45:c0:b5:d0:52:f4:51:86:3d:e2:
                    f7:16:29:5a:fa:4a:9e:27:4b:8e:46:f1:72:3e:a7:
                    f5:a4:0c:e0:0b:17:9a:22:ff:f9:7e:ab:35:8e:01:
                    84:d5:75:93:7f:e6:75:a8:7a:64:de:62:3a:02:47:
                    1a:a0:23:c4:4c:3f:d0:dc:4e:33:e7:6c:bb:fa:f6:
                    18:10:2b:34:30:5f:c7:33:50:99:02:e9:b1:59:46:
                    55:65:a6:ba:a4:83:18:8b:cd:e1:f1:ca:18:e2:d9:
                    20:e6:b7:84:87:1f:0b:56:7c:4d:31:54:26:f2:99:
                    56:c8:a6:59:d6:85:33:f2:90:cc:28:5a:c8:6c:a4:
                    cb:a6:47:46:c4:9a:55:39:84:64:8d:77:e7:0a:3d:
                    c3:d0:12:f7:76:a8:cc:1c:b3:1f:58:85:3a:c4:36:
                    8d:ec:9a:ec:0e:e7:1c:c9:9f:4f:fb:d0:7a:07:0c:
                    c6:05:b0:ab:8d:ba:72:5d:4e:23:d9:6f:0c:5c:f8:
                    a6:72:d1
                Exponent: 65537 (0x10001)
        X509v3 extensions:
            X509v3 Key Usage: critical
                Certificate Sign, CRL Sign
            X509v3 Basic Constraints: critical
                CA:TRUE
            X509v3 Authority Key Identifier:
                keyid:FE:11:A2:6C:10:EE:DE:E2:03:B8:55:82:4E:22:3C:86:E4:3E:6B:54

            X509v3 Subject Key Identifier:
                FE:11:A2:6C:10:EE:DE:E2:03:B8:55:82:4E:22:3C:86:E4:3E:6B:54
    Signature Algorithm: sha256WithRSAEncryption
         a4:80:86:2e:e7:a6:9d:8d:ff:82:57:63:72:e7:1a:60:df:ab:
         b2:b9:b2:01:12:67:38:40:e6:40:7c:58:bc:cc:48:71:5b:01:
         97:9c:79:1c:1e:71:d2:3b:a3:d8:e8:a2:e2:18:01:a5:45:a8:
         e3:f4:ef:ab:bb:8a:78:fc:c7:88:7d:f2:05:60:9a:db:70:c3:
         78:d5:ab:f8:2d:33:8c:6b:a2:f6:c9:03:c0:8a:3c:66:dd:9d:
         e8:ee:a7:4e:25:0f:14:df:f8:0f:16:2e:1e:17:a7:58:c8:d9:
         05:d3:98:a2:bc:64:42:53:fe:24:c9:75:aa:26:ee:6e:32:33:
         08:61:a0:36:7d:ca:bb:9d:bb:b5:71:5e:06:81:6a:ff:67:ee:
         a6:88:3f:b6:3f:d3:17:4c:ce:04:ce:b3:0b:75:39:d1:c0:e3:
         9c:b3:9a:a2:19:56:28:8b:96:a4:b3:9f:16:49:dc:84:20:22:
         ed:ef:72:4c:5f:10:aa:1f:09:01:3b:55:c8:c6:6c:af:a7:d2:
         2e:9e:ed:b0:cc:91:6d:64:c3:ec:18:be:3a:6a:4b:ae:01:2e:
         3f:79:cd:34:1c:38:ae:b9:0d:61:04:73:f7:9e:29:3b:a7:b6:
         90:3a:b8:2c:23:34:c3:b8:0c:06:51:c2:3e:21:99:9f:3c:14:
         90:ca:a9:26:f5:40:e3:22:e9:7d:ce:03:17:ec:ff:bc:d1:99:
         2e:c4:64:8f:3f:2c:59:60:24:3c:b0:db:c3:95:08:aa:00:75:
         b2:9d:0b:20:19:b4:f7:6e:a9:a3:bd:60:f0:33:0f:e2:66:bd:
         47:f6:08:8a:90:35:7d:45:86:4a:c9:9e:c4:cf:5f:df:71:de:
         cc:c9:6e:39:88:4d:b9:4a:cf:03:74:07:59:2b:ed:fc:eb:ee:
         d5:d2:d5:39:6d:77:0d:d8:d1:7f:2f:7e:77:be:61:98:8d:2c:
         52:71:30:84:be:a0:e6:b0:b0:07:08:c5:b4:74:b7:8b:b2:d8:
         ba:d8:00:f2:19:c7:f8:a1:22:0a:66:44:a8:16:08:75:5e:59:
         44:48:45:34:35:08:4a:f0:7b:25:0b:a6:4b:51:7f:77:cd:0d:
         33:38:ab:00:91:66:4c:88:c1:4e:2a:d4:3a:c0:b4:86:de:84:
         80:ca:50:6f:80:f9:4d:65:80:09:15:75:2d:22:56:e5:b5:91:
         23:9d:ee:25:d8:18:30:28:72:db:7f:c3:31:4e:8e:d8:be:43:
         fa:db:8e:9a:05:99:fd:f7:dc:94:89:a7:78:d8:9d:6b:e9:fe:
         f5:24:c7:ba:d2:e9:44:0f:83:4b:5d:9f:ff:24:18:9f:d1:d5:
         84:e8:21:49:b7:db:20:e7
-----BEGIN CERTIFICATE-----
MIIFcDCCA1igAwIBAgINAJgzyagAAAAAVlS8bjANBgkqhkiG9w0BAQsFADBDMQsw
CQYDVQQGEwJIUjEdMBsGA1UEChMURmluYW5jaWpza2EgYWdlbmNpamExFTATBgNV
BAMTDEZpbmEgUm9vdCBDQTAeFw0xNTExMjQxOTA3MzBaFw0zNTExMjQxOTM3MzBa
MEMxCzAJBgNVBAYTAkhSMR0wGwYDVQQKExRGaW5hbmNpanNrYSBhZ2VuY2lqYTEV
MBMGA1UEAxMMRmluYSBSb290IENBMIICIjANBgkqhkiG9w0BAQEFAAOCAg8AMIIC
CgKCAgEAtHPS1mXTAu9YOvSCgtOn4Ipgsjr1sWU4pyQOIWt96aCdM6J0za6RupS1
zMaAtXHfSHHKdUunv/8m64T+uXIWyMJ+htS/r+5jNbnA5NoFT7hIniIo/1UFI2uB
TrMXESwqJR/k4d9hyDzyVmnQVX2WELKoe1aQW6ZeU4tB48eHxzG9NDnsGSHZgMTo
DdvaAwwA9Kq1ggYlDMXZGmKd/QpJBfwcvpNG/M6Jkf/NzF9IX9w40HVv0i2rzCIS
eIgSH+DVTne8LIlNdnqIm10H2rNnmNE5znpGq8/2fVclE/qExANwrwx2DNJAJHxZ
33c3WVCxJUZOQh0IIglyVcRC6m9vZVnUTuA9o6twfOYJMFV2Yonzb9IKprNuGT2W
hnpmlM3yzHrwBwizaa4b/xxxGKJE+dvWDYQQgXRJYWLXEPABpkXAtdBS9FGGPeL3
Fila+kqeJ0uORvFyPqf1pAzgCxeaIv/5fqs1jgGE1XWTf+Z1qHpk3mI6AkcaoCPE
TD/Q3E4z52y7+vYYECs0MF/HM1CZAumxWUZVZaa6pIMYi83h8coY4tkg5reEhx8L
VnxNMVQm8plWyKZZ1oUz8pDMKFrIbKTLpkdGxJpVOYRkjXfnCj3D0BL3dqjMHLMf
WIU6xDaN7JrsDuccyZ9P+9B6BwzGBbCrjbpyXU4j2W8MXPimctECAwEAAaNjMGEw
DgYDVR0PAQH/BAQDAgEGMA8GA1UdEwEB/wQFMAMBAf8wHwYDVR0jBBgwFoAU/hGi
bBDu3uIDuFWCTiI8huQ+a1QwHQYDVR0OBBYEFP4RomwQ7t7iA7hVgk4iPIbkPmtU
MA0GCSqGSIb3DQEBCwUAA4ICAQCkgIYu56adjf+CV2Ny5xpg36uyubIBEmc4QOZA
fFi8zEhxWwGXnHkcHnHSO6PY6KLiGAGlRajj9O+ru4p4/MeIffIFYJrbcMN41av4
LTOMa6L2yQPAijxm3Z3o7qdOJQ8U3/gPFi4eF6dYyNkF05iivGRCU/4kyXWqJu5u
MjMIYaA2fcq7nbu1cV4GgWr/Z+6miD+2P9MXTM4EzrMLdTnRwOOcs5qiGVYoi5ak
s58WSdyEICLt73JMXxCqHwkBO1XIxmyvp9Iunu2wzJFtZMPsGL46akuuAS4/ec00
HDiuuQ1hBHP3nik7p7aQOrgsIzTDuAwGUcI+IZmfPBSQyqkm9UDjIul9zgMX7P+8
0ZkuxGSPPyxZYCQ8sNvDlQiqAHWynQsgGbT3bqmjvWDwMw/iZr1H9giKkDV9RYZK
yZ7Ez1/fcd7MyW45iE25Ss8DdAdZK+386+7V0tU5bXcN2NF/L353vmGYjSxScTCE
vqDmsLAHCMW0dLeLsti62ADyGcf4oSIKZkSoFgh1XllESEU0NQhK8HslC6ZLUX93
zQ0zOKsAkWZMiMFOKtQ6wLSG3oSAylBvgPlNZYAJFXUtIlbltZEjne4l2BgwKHLb
f8MxTo7YvkP6246aBZn999yUiad42J1r6f71JMe60ulED4NLXZ//JBif0dWE6CFJ
t9sg5w==
-----END CERTIFICATE-----
Certificate:
    Data:
        Version: 3 (0x2)
        Serial Number:
            56:aa:0b:cb:00:00:00:00:56:54:bc:c1
    Signature Algorithm: sha256WithRSAEncryption
        Issuer: C=HR, O=Financijska agencija, CN=Fina Root CA
        Validity
            Not Before: Nov 25 10:13:30 2015 GMT
            Not After : Nov 25 10:43:30 2025 GMT
        Subject: C=HR, O=Financijska agencija, CN=Fina RDC 2015
        Subject Public Key Info:
            Public Key Algorithm: rsaEncryption
                Public-Key: (4096 bit)
                Modulus:
                    00:b7:89:3c:bb:03:1f:b2:99:2c:61:46:e5:56:24:
                    c4:76:cd:32:2d:67:16:ee:80:eb:96:83:05:53:5e:
                    22:59:92:b9:92:66:52:9e:ce:77:87:3e:8e:95:76:
                    9a:9b:9f:dc:30:bc:5d:a2:b2:29:b6:d9:49:8c:11:
                    3d:f1:53:24:7a:3b:d4:22:e1:2a:36:57:e9:9f:8c:
                    7e:98:4d:a8:f4:86:e3:91:3a:ef:26:a2:86:c7:56:
                    ed:6c:4c:61:41:b7:7c:32:24:c8:28:b1:d2:c0:65:
                    69:a3:b5:83:5d:28:1f:26:b9:e1:39:8a:09:98:d3:
                    32:af:0e:22:de:25:64:80:17:00:2e:49:4a:6f:cb:
                    d4:57:f1:d8:cb:b9:e7:97:eb:8d:ea:cb:61:f4:31:
                    39:0d:00:68:5f:29:60:68:df:51:81:e1:61:5b:1d:
                    d2:5a:52:d4:99:86:a0:43:df:4f:1e:73:fb:1b:a1:
                    0d:42:9b:6d:9c:ab:db:01:f0:27:81:0d:aa:6b:ed:
                    4e:d9:4c:04:a1:6e:4d:14:9a:1b:50:24:5f:35:ab:
                    57:6c:ff:1b:da:4f:32:e9:91:9b:7a:2e:45:0c:92:
                    36:7c:26:49:75:54:07:c1:3c:d0:43:43:bd:c6:18:
                    57:a4:bb:ed:8b:b7:c3:ce:0d:0b:12:f1:2d:b4:7f:
                    fc:0b:bf:d5:17:47:61:6c:c2:f6:09:9d:e2:2c:3f:
                    f6:f7:84:8e:a8:49:90:93:3d:e8:20:22:57:b8:c8:
                    ec:c8:da:8f:38:3c:a8:c4:8a:26:97:fa:84:0c:62:
                    80:91:56:a5:12:fe:37:6f:47:00:80:1d:0c:05:c7:
                    32:b6:32:6a:8b:93:b9:fd:e8:93:87:f0:7c:7e:1a:
                    53:0e:de:fd:42:3e:41:36:d4:96:c3:da:16:ec:2f:
                    ce:04:10:ea:25:0f:32:77:7e:0f:e3:af:45:51:f4:
                    e2:1c:40:66:3f:c8:b0:79:e9:2c:7b:e5:d7:ce:69:
                    a8:71:d1:f3:53:1d:b7:cc:38:09:f5:8d:43:a4:e5:
                    95:6c:a9:03:f8:bd:2b:77:f8:6b:ed:46:73:c3:27:
                    df:6d:8e:da:bc:75:92:da:02:36:7b:12:bc:90:4d:
                    57:b1:ec:7d:ad:68:41:c6:08:dd:b6:58:9a:a5:2c:
                    9d:ef:1c:e2:de:c6:ae:4d:5b:01:2e:78:b2:58:15:
                    3f:72:c5:d1:c0:ee:6f:b3:0d:93:90:15:0a:6b:07:
                    6f:c0:bf:15:73:5a:c5:f7:b4:7f:6d:e1:a4:9d:27:
                    bf:cc:2b:c8:87:d1:d0:be:47:04:48:2c:81:9b:9f:
                    aa:d7:0a:12:83:f0:e7:24:4b:fc:13:2f:64:38:05:
                    d6:dd:9f
                Exponent: 65537 (0x10001)
        X509v3 extensions:
            X509v3 Key Usage: critical
                Certificate Sign, CRL Sign
            X509v3 Basic Constraints: critical
                CA:TRUE, pathlen:0
            X509v3 Certificate Policies:
                Policy: 1.3.124.1104.5.2.1
                  CPS: http://rdc.fina.hr/Root/FinaRootCA-CP1-0-hr.pdf
                  CPS: http://rdc.fina.hr/Root/FinaRootCA-CP1-0-en.pdf

            Authority Information Access:
                OCSP - URI:http://ocsp.fina.hr
                CA Issuers - URI:http://rdc.fina.hr/Root/FinaRootCA.cer

            X509v3 CRL Distribution Points:

                Full Name:
                  URI:http://rdc.fina.hr/Root/FinaRootCA.crl

                Full Name:
                  DirName: C = HR, O = Financijska agencija, CN = Fina Root CA, CN = CRL1

            X509v3 Authority Key Identifier:
                keyid:FE:11:A2:6C:10:EE:DE:E2:03:B8:55:82:4E:22:3C:86:E4:3E:6B:54

            X509v3 Subject Key Identifier:
                14:63:11:BB:7B:33:03:68:74:1C:15:ED:E6:2C:C1:3C:48:1B:98:21
    Signature Algorithm: sha256WithRSAEncryption
         b0:bc:b6:95:29:74:3b:36:89:90:c6:2c:f6:de:3b:66:12:d2:
         3f:bb:4e:8c:c8:ae:09:02:51:64:16:91:60:4d:17:0f:cf:a5:
         53:ee:c5:22:af:a9:8c:b0:28:86:66:0d:8e:d0:77:19:09:4f:
         a8:7e:3c:8b:d7:3b:cd:71:ac:ad:41:be:ff:16:18:7b:ce:0f:
         ae:fb:9c:6e:f4:ef:49:2b:a3:a4:8c:95:4f:5f:e9:bc:f2:d4:
         14:3a:3a:27:9c:85:d7:51:ad:ee:2f:96:e8:49:9b:65:2c:2a:
         86:ed:44:70:ca:9f:ad:ce:a6:4f:22:21:69:72:db:16:38:bc:
         b0:7e:fb:e9:ca:f6:b4:18:55:16:34:78:48:6f:5e:2d:88:89:
         df:e3:1d:89:d0:c0:be:6e:dd:25:a4:3b:a6:4d:3b:a5:50:a2:
         7f:7e:7f:58:ed:99:28:44:e7:e3:c1:89:7d:74:80:e0:b7:9d:
         07:37:12:f7:8a:9d:c8:a0:ce:91:e4:19:da:3c:2d:02:c0:07:
         63:96:0e:c0:40:a0:dd:60:8a:52:c0:b8:c8:ea:60:fe:81:42:
         c9:5f:93:40:3e:72:85:af:f6:6b:80:72:f8:f4:f9:c8:f1:cd:
         3d:c4:35:2d:5e:02:81:c8:28:29:13:eb:de:8d:fd:65:f7:47:
         f1:c9:d3:63:27:66:4d:a7:42:73:f1:99:0b:ff:5a:6f:8e:ff:
         e9:73:72:aa:03:dc:9f:3a:66:e8:58:37:5d:29:b6:91:96:1c:
         98:f0:8a:fc:29:96:29:2b:ad:0e:e4:ab:0c:29:73:19:1c:48:
         19:f4:35:1b:f5:b0:95:0d:b5:70:09:f6:8d:6c:b4:e8:46:02:
         32:9b:9a:b4:e3:43:88:a7:68:1a:cb:3c:a1:07:bd:2c:9e:ea:
         96:a8:23:c4:c9:e0:61:95:aa:b3:5b:2c:af:8d:bd:3a:58:43:
         16:69:3f:a5:c4:5d:6b:74:38:24:82:e9:89:7f:d1:a6:2e:cb:
         3d:78:36:ab:72:8e:49:ac:98:6e:71:93:2b:c3:43:b2:73:ff:
         19:f1:7e:8b:7c:b4:37:fb:f2:32:0a:c7:68:22:9e:b0:98:f4:
         a7:8f:e7:97:72:d1:36:d4:c9:e1:32:23:c6:66:57:25:cb:97:
         72:47:33:a4:1e:88:fd:ba:b5:46:8b:44:00:bf:9b:22:62:4d:
         65:be:e2:fe:f5:40:19:6c:83:7d:24:92:1c:2f:d4:22:c5:74:
         be:41:fa:a0:b8:c8:8b:a2:40:0d:ad:4a:70:df:f7:a0:85:95:
         f9:70:63:c2:38:f4:bd:12:63:c2:26:e7:9e:b3:15:a1:56:24:
         06:98:44:18:ad:9c:69:f8
-----BEGIN CERTIFICATE-----
MIIHCjCCBPKgAwIBAgIMVqoLywAAAABWVLzBMA0GCSqGSIb3DQEBCwUAMEMxCzAJ
BgNVBAYTAkhSMR0wGwYDVQQKExRGaW5hbmNpanNrYSBhZ2VuY2lqYTEVMBMGA1UE
AxMMRmluYSBSb290IENBMB4XDTE1MTEyNTEwMTMzMFoXDTI1MTEyNTEwNDMzMFow
RDELMAkGA1UEBhMCSFIxHTAbBgNVBAoTFEZpbmFuY2lqc2thIGFnZW5jaWphMRYw
FAYDVQQDEw1GaW5hIFJEQyAyMDE1MIICIjANBgkqhkiG9w0BAQEFAAOCAg8AMIIC
CgKCAgEAt4k8uwMfspksYUblViTEds0yLWcW7oDrloMFU14iWZK5kmZSns53hz6O
lXaam5/cMLxdorIpttlJjBE98VMkejvUIuEqNlfpn4x+mE2o9IbjkTrvJqKGx1bt
bExhQbd8MiTIKLHSwGVpo7WDXSgfJrnhOYoJmNMyrw4i3iVkgBcALklKb8vUV/HY
y7nnl+uN6sth9DE5DQBoXylgaN9RgeFhWx3SWlLUmYagQ99PHnP7G6ENQpttnKvb
AfAngQ2qa+1O2UwEoW5NFJobUCRfNatXbP8b2k8y6ZGbei5FDJI2fCZJdVQHwTzQ
Q0O9xhhXpLvti7fDzg0LEvEttH/8C7/VF0dhbML2CZ3iLD/294SOqEmQkz3oICJX
uMjsyNqPODyoxIoml/qEDGKAkValEv43b0cAgB0MBccytjJqi5O5/eiTh/B8fhpT
Dt79Qj5BNtSWw9oW7C/OBBDqJQ8yd34P469FUfTiHEBmP8iweekse+XXzmmocdHz
Ux23zDgJ9Y1DpOWVbKkD+L0rd/hr7UZzwyffbY7avHWS2gI2exK8kE1Xsex9rWhB
xgjdtliapSyd7xzi3sauTVsBLniyWBU/csXRwO5vsw2TkBUKawdvwL8Vc1rF97R/
beGknSe/zCvIh9HQvkcESCyBm5+q1woSg/DnJEv8Ey9kOAXW3Z8CAwEAAaOCAfsw
ggH3MA4GA1UdDwEB/wQEAwIBBjASBgNVHRMBAf8ECDAGAQH/AgEAMIGTBgNVHSAE
gYswgYgwgYUGByt8iFAFAgEwejA7BggrBgEFBQcCARYvaHR0cDovL3JkYy5maW5h
LmhyL1Jvb3QvRmluYVJvb3RDQS1DUDEtMC1oci5wZGYwOwYIKwYBBQUHAgEWL2h0
dHA6Ly9yZGMuZmluYS5oci9Sb290L0ZpbmFSb290Q0EtQ1AxLTAtZW4ucGRmMGMG
CCsGAQUFBwEBBFcwVTAfBggrBgEFBQcwAYYTaHR0cDovL29jc3AuZmluYS5ocjAy
BggrBgEFBQcwAoYmaHR0cDovL3JkYy5maW5hLmhyL1Jvb3QvRmluYVJvb3RDQS5j
ZXIwgZUGA1UdHwSBjTCBijAsoCqgKIYmaHR0cDovL3JkYy5maW5hLmhyL1Jvb3Qv
RmluYVJvb3RDQS5jcmwwWqBYoFakVDBSMQswCQYDVQQGEwJIUjEdMBsGA1UEChMU
RmluYW5jaWpza2EgYWdlbmNpamExFTATBgNVBAMTDEZpbmEgUm9vdCBDQTENMAsG
A1UEAxMEQ1JMMTAfBgNVHSMEGDAWgBT+EaJsEO7e4gO4VYJOIjyG5D5rVDAdBgNV
HQ4EFgQUFGMRu3szA2h0HBXt5izBPEgbmCEwDQYJKoZIhvcNAQELBQADggIBALC8
tpUpdDs2iZDGLPbeO2YS0j+7TozIrgkCUWQWkWBNFw/PpVPuxSKvqYywKIZmDY7Q
dxkJT6h+PIvXO81xrK1Bvv8WGHvOD677nG7070kro6SMlU9f6bzy1BQ6OiechddR
re4vluhJm2UsKobtRHDKn63Opk8iIWly2xY4vLB+++nK9rQYVRY0eEhvXi2Iid/j
HYnQwL5u3SWkO6ZNO6VQon9+f1jtmShE5+PBiX10gOC3nQc3EveKncigzpHkGdo8
LQLAB2OWDsBAoN1gilLAuMjqYP6BQslfk0A+coWv9muAcvj0+cjxzT3ENS1eAoHI
KCkT696N/WX3R/HJ02MnZk2nQnPxmQv/Wm+O/+lzcqoD3J86ZuhYN10ptpGWHJjw
ivwplikrrQ7kqwwpcxkcSBn0NRv1sJUNtXAJ9o1stOhGAjKbmrTjQ4inaBrLPKEH
vSye6paoI8TJ4GGVqrNbLK+NvTpYQxZpP6XEXWt0OCSC6Yl/0aYuyz14Nqtyjkms
mG5xkyvDQ7Jz/xnxfot8tDf78jIKx2ginrCY9KeP55dy0TbUyeEyI8ZmVyXLl3JH
M6QeiP26tUaLRAC/myJiTWW+4v71QBlsg30kkhwv1CLFdL5B+qC4yIuiQA2tSnDf
96CFlflwY8I49L0SY8Im556zFaFWJAaYRBitnGn4
-----END CERTIFICATE-----
Certificate:
    Data:
        Version: 3 (0x2)
        Serial Number:
            8a:ab:09:23:d3:eb:2d:ae:00:00:00:00:56:54:bf:3c
    Signature Algorithm: sha256WithRSAEncryption
        Issuer: C=HR, O=Financijska agencija, CN=Fina Root CA
        Validity
            Not Before: Nov 25 12:37:10 2020 GMT
            Not After : Nov 25 12:37:10 2030 GMT
        Subject: C=HR, O=Financijska agencija, CN=Fina RDC 2020
        Subject Public Key Info:
            Public Key Algorithm: rsaEncryption
                Public-Key: (4096 bit)
                Modulus:
                    00:af:ef:9b:91:e1:5d:fa:bf:ba:f9:49:e2:bc:26:
                    28:37:93:11:b0:1e:f8:d3:59:f9:1a:5a:0f:2e:ac:
                    98:4c:66:73:a6:ce:93:06:f5:05:ad:34:9f:c7:cc:
                    c6:18:0a:31:c1:9d:c2:aa:b8:a5:c7:61:e8:77:0e:
                    cf:e8:27:01:de:31:61:c2:4b:7f:35:2e:10:06:8f:
                    fb:05:0c:5d:8b:9c:03:51:ee:6c:0a:1a:05:e9:7b:
                    88:fd:cb:f7:b9:ef:fb:86:43:95:38:38:e6:28:ea:
                    69:6c:38:f5:6f:8c:69:52:a1:3a:a8:00:55:56:47:
                    ae:26:f8:1f:19:c7:b7:1e:44:86:a2:5d:dd:6a:58:
                    d2:62:87:ce:de:15:8e:29:1d:76:f7:2b:63:c5:74:
                    3d:f8:4d:fa:9d:47:d4:67:cf:64:c6:a3:28:2e:17:
                    bb:3e:3e:1d:ed:58:e6:58:6c:1c:86:10:00:07:4e:
                    2b:ff:25:06:d8:e3:50:d0:84:cd:2d:16:76:dc:3b:
                    ed:a5:10:5c:ed:90:6a:43:e9:2d:6e:2d:bb:38:08:
                    e2:d2:2a:da:51:e7:eb:64:1c:d0:f6:e5:0b:14:0c:
                    40:22:ea:c4:41:e9:b7:03:c2:76:19:f8:27:70:78:
                    ca:21:9c:5e:52:d3:0c:cf:c0:69:c7:2c:d2:55:fc:
                    bb:76:b0:4a:d9:1e:d6:41:eb:01:2e:0e:b4:df:04:
                    d3:ec:f5:fe:7d:fd:45:6a:f1:6b:79:8d:80:ea:2e:
                    28:9a:80:5c:b9:ad:40:0d:fa:eb:af:ed:04:65:4b:
                    5b:9a:50:df:f6:4a:63:a5:41:a7:f5:d3:99:94:09:
                    5a:16:ac:f5:e4:a6:20:54:66:b0:d1:33:4e:ae:2e:
                    62:53:bf:be:51:91:26:8c:12:83:eb:d8:f2:cf:b9:
                    2d:db:46:6c:27:61:16:7f:b3:ab:a2:9f:fa:6a:9e:
                    fc:38:a2:00:fc:79:90:2d:58:4b:ee:61:12:eb:e5:
                    eb:c0:25:85:48:f2:e7:74:24:97:d9:eb:26:61:bc:
                    16:cb:41:dd:70:fe:f0:ff:a1:1e:17:39:77:2d:8e:
                    a0:76:eb:b9:43:f5:dd:1e:82:f4:3d:f9:68:74:a3:
                    e2:aa:06:2f:62:51:f8:b0:13:5d:66:bb:49:45:61:
                    c3:73:ff:cf:ad:02:92:7a:c3:d3:ba:c0:db:6e:b5:
                    a3:54:db:16:2b:32:bb:45:34:af:da:ad:0d:0f:16:
                    e7:26:50:47:ae:76:bd:b3:20:22:8d:09:c3:a5:17:
                    31:70:a7:cb:3b:86:b5:f8:b0:1b:8c:f8:13:5b:31:
                    35:1d:ae:9f:0c:af:59:a1:88:44:73:b9:90:b2:7f:
                    58:c8:8b
                Exponent: 65537 (0x10001)
        X509v3 extensions:
            X509v3 Key Usage: critical
                Certificate Sign, CRL Sign
            X509v3 Basic Constraints: critical
                CA:TRUE, pathlen:0
            X509v3 Certificate Policies:
                Policy: 1.3.124.1104.5.2.1
                  CPS: https://www.fina.hr/regulativa-dokumenti-i-potvrde-o-sukladnosti
                  CPS: https://www.fina.hr/en/legislation-documents-and-conformance-certificates

            Authority Information Access:
                OCSP - URI:http://ocsp.fina.hr
                CA Issuers - URI:http://rdc.fina.hr/Root/FinaRootCA.cer

            X509v3 CRL Distribution Points:

                Full Name:
                  URI:http://rdc.fina.hr/Root/FinaRootCA.crl

                Full Name:
                  DirName: C = HR, O = Financijska agencija, CN = Fina Root CA, CN = CRL1

            X509v3 Authority Key Identifier:
                keyid:FE:11:A2:6C:10:EE:DE:E2:03:B8:55:82:4E:22:3C:86:E4:3E:6B:54

            X509v3 Subject Key Identifier:
                7A:24:F0:E2:73:39:C5:81:14:0C:13:53:30:22:73:27:48:DE:2B:8B
    Signature Algorithm: sha256WithRSAEncryption
         70:92:98:8d:3b:64:6b:d9:f3:d6:54:09:91:f7:54:c4:a1:ff:
         d0:78:27:28:ba:df:82:9d:66:de:55:2c:60:c5:ee:69:93:34:
         fa:f3:32:59:e5:68:72:03:19:0a:78:34:4a:d4:31:c3:6d:b2:
         2d:d9:27:3a:5a:25:71:cf:e6:6a:d1:c0:d5:3b:10:2d:aa:58:
         5d:47:54:d0:92:a4:db:13:55:1d:33:0c:20:80:e1:8f:b1:c3:
         ad:e9:18:50:b4:1b:7e:7b:07:66:68:40:54:c5:d2:e0:ed:61:
         c1:e9:aa:21:60:f4:7a:e5:11:c0:22:22:2f:c6:99:09:e9:dc:
         41:1b:02:50:10:29:26:1b:ea:61:40:f0:be:f6:86:1f:68:4f:
         5f:bd:81:24:79:3b:87:2c:c8:c5:b1:2e:a8:38:34:11:27:b0:
         60:ac:ea:75:6a:dd:86:28:cc:c8:fd:ff:00:27:c6:60:62:9e:
         85:a8:59:35:51:e9:6c:7c:2d:e7:c9:c9:9c:93:1a:9c:09:51:
         b3:45:91:ea:e4:49:a0:91:21:00:7b:37:13:7d:95:17:89:40:
         b2:e1:59:26:ae:de:13:9b:70:31:96:d9:df:a4:e6:ce:cf:36:
         b6:a9:11:de:d8:8d:df:ce:bd:1f:20:31:27:e5:ff:13:4a:fd:
         9c:66:17:11:79:f7:65:40:fb:0e:79:2e:39:a7:c6:33:34:b9:
         fc:da:01:87:a0:ee:65:10:3d:b8:72:da:fc:71:b4:16:31:cb:
         36:5b:56:8f:c1:c8:51:68:13:ed:93:9c:e0:8d:18:83:65:26:
         f2:e7:11:4c:86:05:c8:81:b8:cb:f5:38:52:61:de:ec:30:f4:
         59:89:b9:6f:1b:2a:3c:85:f4:5b:1e:63:78:8c:65:4a:95:c0:
         a4:87:29:42:c3:c0:39:a6:39:ac:ef:14:9a:f4:73:72:79:c6:
         a6:3f:19:54:00:73:c0:ea:b8:39:f8:e2:11:e0:af:1d:8e:b8:
         2f:f3:cc:dd:cf:3b:4e:c6:8f:9f:88:6d:d2:6d:c3:7e:f8:d5:
         19:1e:8e:9e:25:37:64:26:bd:d5:70:dc:19:08:0b:d7:44:7d:
         ad:42:73:73:46:f4:80:12:f2:8d:26:64:bb:40:8e:a7:1f:df:
         68:44:90:32:c4:de:d3:28:af:e7:94:c1:70:79:ff:eb:1a:e3:
         e4:10:66:7d:af:47:42:e2:b1:60:83:cb:48:8e:99:e9:8d:7c:
         b0:aa:b6:72:4c:bd:af:ba:fc:d8:f7:16:1e:05:ce:b6:62:8f:
         11:60:be:c4:f2:13:d3:da:1d:58:7f:18:b7:5f:d0:0f:d3:f0:
         32:a9:48:dd:4d:15:e7:2a
-----BEGIN CERTIFICATE-----
MIIHOzCCBSOgAwIBAgIRAIqrCSPT6y2uAAAAAFZUvzwwDQYJKoZIhvcNAQELBQAw
QzELMAkGA1UEBhMCSFIxHTAbBgNVBAoTFEZpbmFuY2lqc2thIGFnZW5jaWphMRUw
EwYDVQQDEwxGaW5hIFJvb3QgQ0EwHhcNMjAxMTI1MTIzNzEwWhcNMzAxMTI1MTIz
NzEwWjBEMQswCQYDVQQGEwJIUjEdMBsGA1UEChMURmluYW5jaWpza2EgYWdlbmNp
amExFjAUBgNVBAMTDUZpbmEgUkRDIDIwMjAwggIiMA0GCSqGSIb3DQEBAQUAA4IC
DwAwggIKAoICAQCv75uR4V36v7r5SeK8Jig3kxGwHvjTWfkaWg8urJhMZnOmzpMG
9QWtNJ/HzMYYCjHBncKquKXHYeh3Ds/oJwHeMWHCS381LhAGj/sFDF2LnANR7mwK
GgXpe4j9y/e57/uGQ5U4OOYo6mlsOPVvjGlSoTqoAFVWR64m+B8Zx7ceRIaiXd1q
WNJih87eFY4pHXb3K2PFdD34TfqdR9Rnz2TGoyguF7s+Ph3tWOZYbByGEAAHTiv/
JQbY41DQhM0tFnbcO+2lEFztkGpD6S1uLbs4COLSKtpR5+tkHND25QsUDEAi6sRB
6bcDwnYZ+CdweMohnF5S0wzPwGnHLNJV/Lt2sErZHtZB6wEuDrTfBNPs9f59/UVq
8Wt5jYDqLiiagFy5rUAN+uuv7QRlS1uaUN/2SmOlQaf105mUCVoWrPXkpiBUZrDR
M06uLmJTv75RkSaMEoPr2PLPuS3bRmwnYRZ/s6uin/pqnvw4ogD8eZAtWEvuYRLr
5evAJYVI8ud0JJfZ6yZhvBbLQd1w/vD/oR4XOXctjqB267lD9d0egvQ9+Wh0o+Kq
Bi9iUfiwE11mu0lFYcNz/8+tApJ6w9O6wNtutaNU2xYrMrtFNK/arQ0PFucmUEeu
dr2zICKNCcOlFzFwp8s7hrX4sBuM+BNbMTUdrp8Mr1mhiERzuZCyf1jIiwIDAQAB
o4ICJzCCAiMwDgYDVR0PAQH/BAQDAgEGMBIGA1UdEwEB/wQIMAYBAf8CAQAwgb8G
A1UdIASBtzCBtDCBsQYHK3yIUAUCATCBpTBMBggrBgEFBQcCARZAaHR0cHM6Ly93
d3cuZmluYS5oci9yZWd1bGF0aXZhLWRva3VtZW50aS1pLXBvdHZyZGUtby1zdWts
YWRub3N0aTBVBggrBgEFBQcCARZJaHR0cHM6Ly93d3cuZmluYS5oci9lbi9sZWdp
c2xhdGlvbi1kb2N1bWVudHMtYW5kLWNvbmZvcm1hbmNlLWNlcnRpZmljYXRlczBj
BggrBgEFBQcBAQRXMFUwHwYIKwYBBQUHMAGGE2h0dHA6Ly9vY3NwLmZpbmEuaHIw
MgYIKwYBBQUHMAKGJmh0dHA6Ly9yZGMuZmluYS5oci9Sb290L0ZpbmFSb290Q0Eu
Y2VyMIGVBgNVHR8EgY0wgYowLKAqoCiGJmh0dHA6Ly9yZGMuZmluYS5oci9Sb290
L0ZpbmFSb290Q0EuY3JsMFqgWKBWpFQwUjELMAkGA1UEBhMCSFIxHTAbBgNVBAoT
FEZpbmFuY2lqc2thIGFnZW5jaWphMRUwEwYDVQQDEwxGaW5hIFJvb3QgQ0ExDTAL
BgNVBAMTBENSTDEwHwYDVR0jBBgwFoAU/hGibBDu3uIDuFWCTiI8huQ+a1QwHQYD
VR0OBBYEFHok8OJzOcWBFAwTUzAicydI3iuLMA0GCSqGSIb3DQEBCwUAA4ICAQBw
kpiNO2Rr2fPWVAmR91TEof/QeCcout+CnWbeVSxgxe5pkzT68zJZ5WhyAxkKeDRK
1DHDbbIt2Sc6WiVxz+Zq0cDVOxAtqlhdR1TQkqTbE1UdMwwggOGPscOt6RhQtBt+
ewdmaEBUxdLg7WHB6aohYPR65RHAIiIvxpkJ6dxBGwJQECkmG+phQPC+9oYfaE9f
vYEkeTuHLMjFsS6oODQRJ7BgrOp1at2GKMzI/f8AJ8ZgYp6FqFk1UelsfC3nycmc
kxqcCVGzRZHq5EmgkSEAezcTfZUXiUCy4Vkmrt4Tm3AxltnfpObOzza2qRHe2I3f
zr0fIDEn5f8TSv2cZhcRefdlQPsOeS45p8YzNLn82gGHoO5lED24ctr8cbQWMcs2
W1aPwchRaBPtk5zgjRiDZSby5xFMhgXIgbjL9ThSYd7sMPRZiblvGyo8hfRbHmN4
jGVKlcCkhylCw8A5pjms7xSa9HNyecamPxlUAHPA6rg5+OIR4K8djrgv88zdzztO
xo+fiG3SbcN++NUZHo6eJTdkJr3VcNwZCAvXRH2tQnNzRvSAEvKNJmS7QI6nH99o
RJAyxN7TKK/nlMFwef/rGuPkEGZ9r0dC4rFgg8tIjpnpjXywqrZyTL2vuvzY9xYe
Bc62Yo8RYL7E8hPT2h1Yfxi3X9AP0/AyqUjdTRXnKg==
-----END CERTIFICATE-----
